target datalayout = "e-m:e-p270:32:32-p271:32:32-p272:64:64-i64:64-i128:128-f80:128-n8:16:32:64-S128"
target triple = "x86_64-pc-linux-gnu"

%struct.UBiDi = type { ptr, ptr, i32, i32, i32, i32, i32, i32, i32, i32, i32, ptr, ptr, ptr, ptr, ptr, ptr, i8, i8, ptr, ptr, i8, i32, i32, i8, i8, i8, ptr, i32, ptr, i32, ptr, i32, i32, i32, i32, i32, ptr, [10 x %struct.Para], i32, ptr, [1 x %struct.Run], i32, ptr, [5 x %struct.Isolate], %struct.InsertPoints, i32, ptr, ptr }
%struct.Para = type { i32, i32 }
%struct.Run = type { i32, i32, i32 }
%struct.Isolate = type { i32, i32, i32, i16 }
%struct.InsertPoints = type { i32, i32, i32, i32, ptr }

@_ZL6flagLR = internal constant [2 x i32] [i32 1, i32 2], align 4
@_ZL5flagO = internal constant [2 x i32] [i32 4096, i32 32768], align 4
@_ZL5flagE = internal constant [2 x i32] [i32 2048, i32 16384], align 4

; Function Attrs: mustprogress nounwind uwtable
define internal noundef i32 @_ZL18directionFromFlagsP5UBiDi(ptr noundef %0) #7 {
  %2 = alloca i32, align 4
  %3 = alloca ptr, align 8
  %4 = alloca i32, align 4
  %5 = alloca i32, align 4
  store ptr %0, ptr %3, align 8, !tbaa !11
  call void @llvm.lifetime.start.p0(i64 4, ptr %4) #10
  %6 = load ptr, ptr %3, align 8, !tbaa !11
  %7 = getelementptr inbounds nuw %struct.UBiDi, ptr %6, i32 0, i32 33
  %8 = load i32, ptr %7, align 4, !tbaa !77
  store i32 %8, ptr %4, align 4, !tbaa !7
  %9 = load i32, ptr %4, align 4, !tbaa !7
  %10 = zext i32 %9 to i64
  %11 = and i64 %10, 2154498
  %12 = icmp ne i64 %11, 0
  br i1 %12, label %24, label %13

13:                                               ; preds = %1
  %14 = load i32, ptr %4, align 4, !tbaa !7
  %15 = zext i32 %14 to i64
  %16 = and i64 %15, 32
  %17 = icmp ne i64 %16, 0
  br i1 %17, label %18, label %23

18:                                               ; preds = %13
  %19 = load i32, ptr %4, align 4, !tbaa !7
  %20 = zext i32 %19 to i64
  %21 = and i64 %20, 8249304
  %22 = icmp ne i64 %21, 0
  br i1 %22, label %24, label %23

23:                                               ; preds = %18, %13
  store i32 0, ptr %2, align 4
  store i32 1, ptr %5, align 4
  br label %31

24:                                               ; preds = %18, %1
  %25 = load i32, ptr %4, align 4, !tbaa !7
  %26 = zext i32 %25 to i64
  %27 = and i64 %26, 26220581
  %28 = icmp ne i64 %27, 0
  br i1 %28, label %30, label %29

29:                                               ; preds = %24
  store i32 1, ptr %2, align 4
  store i32 1, ptr %5, align 4
  br label %31

30:                                               ; preds = %24
  store i32 2, ptr %2, align 4
  store i32 1, ptr %5, align 4
  br label %31

31:                                               ; preds = %30, %29, %23
  call void @llvm.lifetime.end.p0(i64 4, ptr %4) #10
  %32 = load i32, ptr %2, align 4
  ret i32 %32
}

; Function Attrs: mustprogress nounwind uwtable
define internal noundef i32 @_ZL19checkExplicitLevelsP5UBiDiP10UErrorCode(ptr noundef %0, ptr noundef %1) #7 {
  %3 = alloca i32, align 4
  %4 = alloca ptr, align 8
  %5 = alloca ptr, align 8
  %6 = alloca ptr, align 8
  %7 = alloca ptr, align 8
  %8 = alloca i32, align 4
  %9 = alloca i32, align 4
  %10 = alloca i32, align 4
  %11 = alloca i32, align 4
  %12 = alloca i32, align 4
  %13 = alloca i32, align 4
  %14 = alloca i32, align 4
  %15 = alloca i32, align 4
  %16 = alloca i8, align 1
  %17 = alloca i8, align 1
  %18 = alloca i8, align 1
  store ptr %0, ptr %4, align 8, !tbaa !11
  store ptr %1, ptr %5, align 8, !tbaa !9
  call void @llvm.lifetime.start.p0(i64 8, ptr %6) #10
  %19 = load ptr, ptr %4, align 8, !tbaa !11
  %20 = getelementptr inbounds nuw %struct.UBiDi, ptr %19, i32 0, i32 19
  %21 = load ptr, ptr %20, align 8, !tbaa !71
  store ptr %21, ptr %6, align 8, !tbaa !64
  call void @llvm.lifetime.start.p0(i64 8, ptr %7) #10
  %22 = load ptr, ptr %4, align 8, !tbaa !11
  %23 = getelementptr inbounds nuw %struct.UBiDi, ptr %22, i32 0, i32 20
  %24 = load ptr, ptr %23, align 8, !tbaa !72
  store ptr %24, ptr %7, align 8, !tbaa !64
  call void @llvm.lifetime.start.p0(i64 4, ptr %8) #10
  store i32 0, ptr %8, align 4, !tbaa !7
  call void @llvm.lifetime.start.p0(i64 4, ptr %9) #10
  %25 = load ptr, ptr %4, align 8, !tbaa !11
  %26 = getelementptr inbounds nuw %struct.UBiDi, ptr %25, i32 0, i32 3
  %27 = load i32, ptr %26, align 4, !tbaa !68
  store i32 %27, ptr %9, align 4, !tbaa !7
  call void @llvm.lifetime.start.p0(i64 4, ptr %10) #10
  store i32 0, ptr %10, align 4, !tbaa !7
  %28 = load ptr, ptr %4, align 8, !tbaa !11
  %29 = getelementptr inbounds nuw %struct.UBiDi, ptr %28, i32 0, i32 42
  store i32 0, ptr %29, align 4, !tbaa !81
  call void @llvm.lifetime.start.p0(i64 4, ptr %11) #10
  store i32 0, ptr %11, align 4, !tbaa !7
  call void @llvm.lifetime.start.p0(i64 4, ptr %12) #10
  %30 = load ptr, ptr %4, align 8, !tbaa !11
  %31 = getelementptr inbounds nuw %struct.UBiDi, ptr %30, i32 0, i32 37
  %32 = load ptr, ptr %31, align 8, !tbaa !55
  %33 = getelementptr inbounds %struct.Para, ptr %32, i64 0
  %34 = getelementptr inbounds nuw %struct.Para, ptr %33, i32 0, i32 0
  %35 = load i32, ptr %34, align 4, !tbaa !56
  store i32 %35, ptr %12, align 4, !tbaa !7
  call void @llvm.lifetime.start.p0(i64 4, ptr %13) #10
  %36 = load ptr, ptr %4, align 8, !tbaa !11
  %37 = getelementptr inbounds nuw %struct.UBiDi, ptr %36, i32 0, i32 25
  %38 = load i8, ptr %37, align 1, !tbaa !69
  %39 = zext i8 %38 to i32
  store i32 %39, ptr %13, align 4, !tbaa !7
  call void @llvm.lifetime.start.p0(i64 4, ptr %14) #10
  store i32 0, ptr %14, align 4, !tbaa !7
  br label %40

40:                                               ; preds = %202, %2
  %41 = load i32, ptr %14, align 4, !tbaa !7
  %42 = load i32, ptr %9, align 4, !tbaa !7
  %43 = icmp slt i32 %41, %42
  br i1 %43, label %45, label %44

44:                                               ; preds = %40
  store i32 2, ptr %15, align 4
  br label %205

45:                                               ; preds = %40
  call void @llvm.lifetime.start.p0(i64 1, ptr %16) #10
  %46 = load ptr, ptr %7, align 8, !tbaa !64
  %47 = load i32, ptr %14, align 4, !tbaa !7
  %48 = sext i32 %47 to i64
  %49 = getelementptr inbounds i8, ptr %46, i64 %48
  %50 = load i8, ptr %49, align 1, !tbaa !30
  store i8 %50, ptr %16, align 1, !tbaa !30
  call void @llvm.lifetime.start.p0(i64 1, ptr %17) #10
  %51 = load ptr, ptr %6, align 8, !tbaa !64
  %52 = load i32, ptr %14, align 4, !tbaa !7
  %53 = sext i32 %52 to i64
  %54 = getelementptr inbounds i8, ptr %51, i64 %53
  %55 = load i8, ptr %54, align 1, !tbaa !30
  store i8 %55, ptr %17, align 1, !tbaa !30
  %56 = load i8, ptr %17, align 1, !tbaa !30
  %57 = zext i8 %56 to i32
  %58 = icmp eq i32 %57, 20
  br i1 %58, label %63, label %59

59:                                               ; preds = %45
  %60 = load i8, ptr %17, align 1, !tbaa !30
  %61 = zext i8 %60 to i32
  %62 = icmp eq i32 %61, 21
  br i1 %62, label %63, label %76

63:                                               ; preds = %59, %45
  %64 = load i32, ptr %8, align 4, !tbaa !7
  %65 = add nsw i32 %64, 1
  store i32 %65, ptr %8, align 4, !tbaa !7
  %66 = load i32, ptr %8, align 4, !tbaa !7
  %67 = load ptr, ptr %4, align 8, !tbaa !11
  %68 = getelementptr inbounds nuw %struct.UBiDi, ptr %67, i32 0, i32 42
  %69 = load i32, ptr %68, align 4, !tbaa !81
  %70 = icmp sgt i32 %66, %69
  br i1 %70, label %71, label %75

71:                                               ; preds = %63
  %72 = load i32, ptr %8, align 4, !tbaa !7
  %73 = load ptr, ptr %4, align 8, !tbaa !11
  %74 = getelementptr inbounds nuw %struct.UBiDi, ptr %73, i32 0, i32 42
  store i32 %72, ptr %74, align 4, !tbaa !81
  br label %75

75:                                               ; preds = %71, %63
  br label %90

76:                                               ; preds = %59
  %77 = load i8, ptr %17, align 1, !tbaa !30
  %78 = zext i8 %77 to i32
  %79 = icmp eq i32 %78, 22
  br i1 %79, label %80, label %83

80:                                               ; preds = %76
  %81 = load i32, ptr %8, align 4, !tbaa !7
  %82 = add nsw i32 %81, -1
  store i32 %82, ptr %8, align 4, !tbaa !7
  br label %89

83:                                               ; preds = %76
  %84 = load i8, ptr %17, align 1, !tbaa !30
  %85 = zext i8 %84 to i32
  %86 = icmp eq i32 %85, 7
  br i1 %86, label %87, label %88

87:                                               ; preds = %83
  store i32 0, ptr %8, align 4, !tbaa !7
  br label %88

88:                                               ; preds = %87, %83
  br label %89

89:                                               ; preds = %88, %80
  br label %90

90:                                               ; preds = %89, %75
  %91 = load ptr, ptr %4, align 8, !tbaa !11
  %92 = getelementptr inbounds nuw %struct.UBiDi, ptr %91, i32 0, i32 26
  %93 = load i8, ptr %92, align 2, !tbaa !76
  %94 = zext i8 %93 to i32
  %95 = icmp ne i32 %94, 0
  br i1 %95, label %96, label %125

96:                                               ; preds = %90
  %97 = load i32, ptr %14, align 4, !tbaa !7
  %98 = load i32, ptr %12, align 4, !tbaa !7
  %99 = icmp eq i32 %97, %98
  br i1 %99, label %100, label %125

100:                                              ; preds = %96
  %101 = load i32, ptr %11, align 4, !tbaa !7
  %102 = add nsw i32 %101, 1
  %103 = load ptr, ptr %4, align 8, !tbaa !11
  %104 = getelementptr inbounds nuw %struct.UBiDi, ptr %103, i32 0, i32 36
  %105 = load i32, ptr %104, align 8, !tbaa !54
  %106 = icmp slt i32 %102, %105
  br i1 %106, label %107, label %125

107:                                              ; preds = %100
  %108 = load ptr, ptr %4, align 8, !tbaa !11
  %109 = getelementptr inbounds nuw %struct.UBiDi, ptr %108, i32 0, i32 37
  %110 = load ptr, ptr %109, align 8, !tbaa !55
  %111 = load i32, ptr %11, align 4, !tbaa !7
  %112 = add nsw i32 %111, 1
  store i32 %112, ptr %11, align 4, !tbaa !7
  %113 = sext i32 %112 to i64
  %114 = getelementptr inbounds %struct.Para, ptr %110, i64 %113
  %115 = getelementptr inbounds nuw %struct.Para, ptr %114, i32 0, i32 1
  %116 = load i32, ptr %115, align 4, !tbaa !59
  store i32 %116, ptr %13, align 4, !tbaa !7
  %117 = load ptr, ptr %4, align 8, !tbaa !11
  %118 = getelementptr inbounds nuw %struct.UBiDi, ptr %117, i32 0, i32 37
  %119 = load ptr, ptr %118, align 8, !tbaa !55
  %120 = load i32, ptr %11, align 4, !tbaa !7
  %121 = sext i32 %120 to i64
  %122 = getelementptr inbounds %struct.Para, ptr %119, i64 %121
  %123 = getelementptr inbounds nuw %struct.Para, ptr %122, i32 0, i32 0
  %124 = load i32, ptr %123, align 4, !tbaa !56
  store i32 %124, ptr %12, align 4, !tbaa !7
  br label %125

125:                                              ; preds = %107, %100, %96, %90
  call void @llvm.lifetime.start.p0(i64 1, ptr %18) #10
  %126 = load i8, ptr %16, align 1, !tbaa !30
  %127 = zext i8 %126 to i32
  %128 = and i32 %127, 128
  %129 = trunc i32 %128 to i8
  store i8 %129, ptr %18, align 1, !tbaa !30
  %130 = load i8, ptr %16, align 1, !tbaa !30
  %131 = zext i8 %130 to i32
  %132 = and i32 %131, -129
  %133 = trunc i32 %132 to i8
  store i8 %133, ptr %16, align 1, !tbaa !30
  %134 = load i8, ptr %16, align 1, !tbaa !30
  %135 = zext i8 %134 to i32
  %136 = load i32, ptr %13, align 4, !tbaa !7
  %137 = icmp slt i32 %135, %136
  br i1 %137, label %142, label %138

138:                                              ; preds = %125
  %139 = load i8, ptr %16, align 1, !tbaa !30
  %140 = zext i8 %139 to i32
  %141 = icmp slt i32 125, %140
  br i1 %141, label %142, label %168

142:                                              ; preds = %138, %125
  %143 = load i8, ptr %16, align 1, !tbaa !30
  %144 = zext i8 %143 to i32
  %145 = icmp eq i32 %144, 0
  br i1 %145, label %146, label %165

146:                                              ; preds = %142
  %147 = load i8, ptr %17, align 1, !tbaa !30
  %148 = zext i8 %147 to i32
  %149 = icmp eq i32 %148, 7
  br i1 %149, label %150, label %151

150:                                              ; preds = %146
  br label %164

151:                                              ; preds = %146
  %152 = load i32, ptr %13, align 4, !tbaa !7
  %153 = trunc i32 %152 to i8
  store i8 %153, ptr %16, align 1, !tbaa !30
  %154 = load i8, ptr %16, align 1, !tbaa !30
  %155 = zext i8 %154 to i32
  %156 = load i8, ptr %18, align 1, !tbaa !30
  %157 = zext i8 %156 to i32
  %158 = or i32 %155, %157
  %159 = trunc i32 %158 to i8
  %160 = load ptr, ptr %7, align 8, !tbaa !64
  %161 = load i32, ptr %14, align 4, !tbaa !7
  %162 = sext i32 %161 to i64
  %163 = getelementptr inbounds i8, ptr %160, i64 %162
  store i8 %159, ptr %163, align 1, !tbaa !30
  br label %164

164:                                              ; preds = %151, %150
  br label %167

165:                                              ; preds = %142
  %166 = load ptr, ptr %5, align 8, !tbaa !9
  store i32 1, ptr %166, align 4, !tbaa !3
  store i32 0, ptr %3, align 4
  store i32 1, ptr %15, align 4
  br label %199

167:                                              ; preds = %164
  br label %168

168:                                              ; preds = %167, %138
  %169 = load i8, ptr %18, align 1, !tbaa !30
  %170 = zext i8 %169 to i32
  %171 = icmp ne i32 %170, 0
  br i1 %171, label %172, label %181

172:                                              ; preds = %168
  %173 = load i8, ptr %16, align 1, !tbaa !30
  %174 = zext i8 %173 to i32
  %175 = and i32 %174, 1
  %176 = sext i32 %175 to i64
  %177 = getelementptr inbounds [2 x i32], ptr @_ZL5flagO, i64 0, i64 %176
  %178 = load i32, ptr %177, align 4, !tbaa !7
  %179 = load i32, ptr %10, align 4, !tbaa !7
  %180 = or i32 %179, %178
  store i32 %180, ptr %10, align 4, !tbaa !7
  br label %198

181:                                              ; preds = %168
  %182 = load i8, ptr %16, align 1, !tbaa !30
  %183 = zext i8 %182 to i32
  %184 = and i32 %183, 1
  %185 = sext i32 %184 to i64
  %186 = getelementptr inbounds [2 x i32], ptr @_ZL5flagE, i64 0, i64 %185
  %187 = load i32, ptr %186, align 4, !tbaa !7
  %188 = zext i32 %187 to i64
  %189 = load i8, ptr %17, align 1, !tbaa !30
  %190 = zext i8 %189 to i32
  %191 = zext i32 %190 to i64
  %192 = shl i64 1, %191
  %193 = or i64 %188, %192
  %194 = load i32, ptr %10, align 4, !tbaa !7
  %195 = zext i32 %194 to i64
  %196 = or i64 %195, %193
  %197 = trunc i64 %196 to i32
  store i32 %197, ptr %10, align 4, !tbaa !7
  br label %198

198:                                              ; preds = %181, %172
  store i32 0, ptr %15, align 4
  br label %199

199:                                              ; preds = %198, %165
  call void @llvm.lifetime.end.p0(i64 1, ptr %18) #10
  call void @llvm.lifetime.end.p0(i64 1, ptr %17) #10
  call void @llvm.lifetime.end.p0(i64 1, ptr %16) #10
  %200 = load i32, ptr %15, align 4
  switch i32 %200, label %205 [
    i32 0, label %201
  ]

201:                                              ; preds = %199
  br label %202

202:                                              ; preds = %201
  %203 = load i32, ptr %14, align 4, !tbaa !7
  %204 = add nsw i32 %203, 1
  store i32 %204, ptr %14, align 4, !tbaa !7
  br label %40, !llvm.loop !115

205:                                              ; preds = %199, %44
  call void @llvm.lifetime.end.p0(i64 4, ptr %14) #10
  %206 = load i32, ptr %15, align 4
  switch i32 %206, label %229 [
    i32 2, label %207
  ]

207:                                              ; preds = %205
  %208 = load i32, ptr %10, align 4, !tbaa !7
  %209 = zext i32 %208 to i64
  %210 = and i64 %209, 8380376
  %211 = icmp ne i64 %210, 0
  br i1 %211, label %212, label %223

212:                                              ; preds = %207
  %213 = load ptr, ptr %4, align 8, !tbaa !11
  %214 = getelementptr inbounds nuw %struct.UBiDi, ptr %213, i32 0, i32 25
  %215 = load i8, ptr %214, align 1, !tbaa !69
  %216 = zext i8 %215 to i32
  %217 = and i32 %216, 1
  %218 = sext i32 %217 to i64
  %219 = getelementptr inbounds [2 x i32], ptr @_ZL6flagLR, i64 0, i64 %218
  %220 = load i32, ptr %219, align 4, !tbaa !7
  %221 = load i32, ptr %10, align 4, !tbaa !7
  %222 = or i32 %221, %220
  store i32 %222, ptr %10, align 4, !tbaa !7
  br label %223

223:                                              ; preds = %212, %207
  %224 = load i32, ptr %10, align 4, !tbaa !7
  %225 = load ptr, ptr %4, align 8, !tbaa !11
  %226 = getelementptr inbounds nuw %struct.UBiDi, ptr %225, i32 0, i32 33
  store i32 %224, ptr %226, align 4, !tbaa !77
  %227 = load ptr, ptr %4, align 8, !tbaa !11
  %228 = call noundef i32 @_ZL18directionFromFlagsP5UBiDi(ptr noundef %227)
  store i32 %228, ptr %3, align 4
  store i32 1, ptr %15, align 4
  br label %229

229:                                              ; preds = %223, %205
  call void @llvm.lifetime.end.p0(i64 4, ptr %13) #10
  call void @llvm.lifetime.end.p0(i64 4, ptr %12) #10
  call void @llvm.lifetime.end.p0(i64 4, ptr %11) #10
  call void @llvm.lifetime.end.p0(i64 4, ptr %10) #10
  call void @llvm.lifetime.end.p0(i64 4, ptr %9) #10
  call void @llvm.lifetime.end.p0(i64 4, ptr %8) #10
  call void @llvm.lifetime.end.p0(i64 8, ptr %7) #10
  call void @llvm.lifetime.end.p0(i64 8, ptr %6) #10
  %230 = load i32, ptr %3, align 4
  ret i32 %230
}