; Function Attrs: mustprogress nofree norecurse nosync nounwind memory(readwrite, inaccessiblemem: none) uwtable
define internal fastcc noundef range(i32 0, 3) i32 @_ZL19checkExplicitLevelsP5UBiDiP10UErrorCode(ptr noundef nonnull captures(none) initializes((324, 328)) %0, ptr noundef nonnull writeonly captures(none) %1) unnamed_addr #9 {
  %3 = getelementptr inbounds nuw i8, ptr %0, i64 112
  %4 = load ptr, ptr %3, align 8, !tbaa !76
  %5 = getelementptr inbounds nuw i8, ptr %0, i64 120
  %6 = load ptr, ptr %5, align 8, !tbaa !70
  %7 = getelementptr inbounds nuw i8, ptr %0, i64 20
  %8 = load i32, ptr %7, align 4, !tbaa !51
  %9 = getelementptr inbounds nuw i8, ptr %0, i64 324
  store i32 0, ptr %9, align 4, !tbaa !86
  %10 = getelementptr inbounds nuw i8, ptr %0, i64 208
  %11 = getelementptr inbounds nuw i8, ptr %0, i64 141
  %.not8796 = icmp sgt i32 %8, 0
  br i1 %.not8796, label %.lr.ph, label %.thread108

.thread108:                                       ; preds = %2
  %12 = getelementptr inbounds nuw i8, ptr %0, i64 188
  store i32 0, ptr %12, align 4, !tbaa !75
  br label %_ZL18directionFromFlagsP5UBiDi.exit

.lr.ph:                                           ; preds = %2
  %13 = load i8, ptr %11, align 1, !tbaa !66
  %14 = zext i8 %13 to i32
  %15 = load ptr, ptr %10, align 8, !tbaa !41
  %16 = load i32, ptr %15, align 4, !tbaa !42
  %17 = getelementptr inbounds nuw i8, ptr %0, i64 142
  %18 = getelementptr inbounds nuw i8, ptr %0, i64 200
  %wide.trip.count = zext nneg i32 %8 to i64
  br label %19

19:                                               ; preds = %.lr.ph, %73
  %indvars.iv = phi i64 [ 0, %.lr.ph ], [ %indvars.iv.next, %73 ]
  %.065102 = phi i32 [ 0, %.lr.ph ], [ %.166, %73 ]
  %.071100 = phi i32 [ %14, %.lr.ph ], [ %.172, %73 ]
  %.07399 = phi i32 [ %16, %.lr.ph ], [ %.174, %73 ]
  %.07598 = phi i32 [ 0, %.lr.ph ], [ %.176, %73 ]
  %.07797 = phi i32 [ 0, %.lr.ph ], [ %.279.ph, %73 ]
  %20 = getelementptr inbounds nuw i8, ptr %6, i64 %indvars.iv
  %21 = load i8, ptr %20, align 1, !tbaa !59
  %22 = getelementptr inbounds nuw i8, ptr %4, i64 %indvars.iv
  %23 = load i8, ptr %22, align 1, !tbaa !59
  %24 = and i8 %23, -2
  %or.cond = icmp eq i8 %24, 20
  br i1 %or.cond, label %25, label %29

25:                                               ; preds = %19
  %26 = add nsw i32 %.065102, 1
  %27 = load i32, ptr %9, align 4, !tbaa !86
  %.not = icmp slt i32 %.065102, %27
  br i1 %.not, label %33, label %28

28:                                               ; preds = %25
  store i32 %26, ptr %9, align 4, !tbaa !86
  br label %33

29:                                               ; preds = %19
  switch i8 %23, label %33 [
    i8 22, label %30
    i8 7, label %32
  ]

30:                                               ; preds = %29
  %31 = add nsw i32 %.065102, -1
  br label %33

32:                                               ; preds = %29
  br label %33

33:                                               ; preds = %29, %30, %32, %25, %28
  %.166 = phi i32 [ %26, %28 ], [ %26, %25 ], [ %31, %30 ], [ 0, %32 ], [ %.065102, %29 ]
  %34 = load i8, ptr %17, align 2, !tbaa !74
  %.not85 = icmp ne i8 %34, 0
  %35 = zext i32 %.07399 to i64
  %36 = icmp eq i64 %indvars.iv, %35
  %or.cond89 = select i1 %.not85, i1 %36, i1 false
  br i1 %or.cond89, label %37, label %48

37:                                               ; preds = %33
  %38 = add nsw i32 %.07598, 1
  %39 = load i32, ptr %18, align 8, !tbaa !40
  %40 = icmp slt i32 %38, %39
  br i1 %40, label %41, label %48

41:                                               ; preds = %37
  %42 = load ptr, ptr %10, align 8, !tbaa !41
  %43 = sext i32 %38 to i64
  %44 = getelementptr inbounds %struct.Para, ptr %42, i64 %43
  %45 = getelementptr inbounds nuw i8, ptr %44, i64 4
  %46 = load i32, ptr %45, align 4, !tbaa !46
  %47 = load i32, ptr %44, align 4, !tbaa !42
  br label %48

48:                                               ; preds = %41, %37, %33
  %.176 = phi i32 [ %38, %41 ], [ %.07598, %37 ], [ %.07598, %33 ]
  %.174 = phi i32 [ %47, %41 ], [ %.07399, %37 ], [ %.07399, %33 ]
  %.172 = phi i32 [ %46, %41 ], [ %.071100, %37 ], [ %.071100, %33 ]
  %49 = and i8 %21, 127
  %50 = zext nneg i8 %49 to i32
  %51 = icmp sgt i32 %.172, %50
  %52 = icmp samesign ugt i8 %49, 125
  %or.cond6 = select i1 %51, i1 true, i1 %52
  br i1 %or.cond6, label %53, label %60

53:                                               ; preds = %48
  %54 = icmp eq i8 %49, 0
  br i1 %54, label %55, label %.thread93

55:                                               ; preds = %53
  %56 = icmp eq i8 %23, 7
  br i1 %56, label %60, label %57

57:                                               ; preds = %55
  %58 = trunc i32 %.172 to i8
  %59 = or i8 %21, %58
  store i8 %59, ptr %20, align 1, !tbaa !59
  br label %60

60:                                               ; preds = %55, %57, %48
  %.067 = phi i8 [ 0, %55 ], [ %58, %57 ], [ %49, %48 ]
  %.not86 = icmp sgt i8 %21, -1
  %61 = and i8 %.067, 1
  %62 = zext nneg i8 %61 to i64
  br i1 %.not86, label %66, label %63

63:                                               ; preds = %60
  %64 = getelementptr inbounds nuw [2 x i32], ptr @_ZL5flagO, i64 0, i64 %62
  %65 = load i32, ptr %64, align 4, !tbaa !25
  br label %73

66:                                               ; preds = %60
  %67 = getelementptr inbounds nuw [2 x i32], ptr @_ZL5flagE, i64 0, i64 %62
  %68 = load i32, ptr %67, align 4, !tbaa !25
  %69 = zext nneg i8 %23 to i64
  %70 = shl nuw i64 1, %69
  %71 = trunc i64 %70 to i32
  %72 = or i32 %68, %71
  br label %73

.thread93:                                        ; preds = %53
  store i32 1, ptr %1, align 4, !tbaa !23
  br label %_ZL18directionFromFlagsP5UBiDi.exit

73:                                               ; preds = %66, %63
  %.pn = phi i32 [ %72, %66 ], [ %65, %63 ]
  %.279.ph = or i32 %.pn, %.07797
  %indvars.iv.next = add nuw nsw i64 %indvars.iv, 1
  %exitcond.not = icmp eq i64 %indvars.iv.next, %wide.trip.count
  br i1 %exitcond.not, label %._crit_edge, label %19, !llvm.loop !119

._crit_edge:                                      ; preds = %73
  %74 = and i32 %.279.ph, 8380376
  %.not88 = icmp eq i32 %74, 0
  br i1 %.not88, label %82, label %75

75:                                               ; preds = %._crit_edge
  %76 = load i8, ptr %11, align 1, !tbaa !66
  %77 = and i8 %76, 1
  %78 = zext nneg i8 %77 to i64
  %79 = getelementptr inbounds nuw [2 x i32], ptr @_ZL6flagLR, i64 0, i64 %78
  %80 = load i32, ptr %79, align 4, !tbaa !25
  %81 = or i32 %80, %.279.ph
  br label %82

82:                                               ; preds = %75, %._crit_edge
  %.4 = phi i32 [ %81, %75 ], [ %.279.ph, %._crit_edge ]
  %83 = getelementptr inbounds nuw i8, ptr %0, i64 188
  store i32 %.4, ptr %83, align 4, !tbaa !75
  %84 = zext i32 %.4 to i64
  %85 = and i64 %84, 2154498
  %.not.i = icmp eq i64 %85, 0
  br i1 %.not.i, label %86, label %89

86:                                               ; preds = %82
  %87 = and i64 %84, 32
  %.not5.i = icmp eq i64 %87, 0
  %88 = and i64 %84, 6103000
  %.not6.i = icmp eq i64 %88, 0
  %or.cond.i = or i1 %.not5.i, %.not6.i
  br i1 %or.cond.i, label %_ZL18directionFromFlagsP5UBiDi.exit, label %89

89:                                               ; preds = %86, %82
  %90 = and i64 %84, 26220581
  %.not7.i = icmp eq i64 %90, 0
  %..i = select i1 %.not7.i, i32 1, i32 2
  br label %_ZL18directionFromFlagsP5UBiDi.exit

_ZL18directionFromFlagsP5UBiDi.exit:              ; preds = %.thread108, %89, %86, %.thread93
  %.3 = phi i32 [ 0, %.thread93 ], [ 0, %86 ], [ %..i, %89 ], [ 0, %.thread108 ]
  ret i32 %.3
}